; Function Attrs: mustprogress uwtable
define void @_ZN6icu_7522RuleBasedBreakIteratorC2ERKNS_13UnicodeStringER11UParseErrorR10UErrorCode(ptr noundef nonnull align 8 dereferenceable(745) %this, ptr noundef nonnull align 8 dereferenceable(64) %rules, ptr noundef nonnull align 4 dereferenceable(72) %parseError, ptr noundef nonnull align 4 dereferenceable(4) %status) unnamed_addr #1 align 2 personality ptr @__gxx_personality_v0 {
entry:
  tail call void @_ZN6icu_7522RuleBasedBreakIteratorC2EP10UErrorCode(ptr noundef nonnull align 8 dereferenceable(745) %this, ptr noundef nonnull %status)
  %0 = load i32, ptr %status, align 4
  %cmp.i = icmp slt i32 %0, 1
  br i1 %cmp.i, label %if.end, label %if.end10

lpad:                                             ; preds = %if.then7, %if.end
  %1 = landingpad { ptr, i32 }
          cleanup
  tail call void @_ZN6icu_7522RuleBasedBreakIteratorD2Ev(ptr noundef nonnull align 8 dereferenceable(745) %this) #15
  resume { ptr, i32 } %1

if.end:                                           ; preds = %entry
  %call3 = invoke noundef ptr @_ZN6icu_7515RBBIRuleBuilder28createRuleBasedBreakIteratorERKNS_13UnicodeStringEP11UParseErrorR10UErrorCode(ptr noundef nonnull align 8 dereferenceable(64) %rules, ptr noundef nonnull %parseError, ptr noundef nonnull align 4 dereferenceable(4) %status)
          to label %invoke.cont2 unwind label %lpad

invoke.cont2:                                     ; preds = %if.end
  %2 = load i32, ptr %status, align 4
  %cmp.i5 = icmp sgt i32 %2, 0
  br i1 %cmp.i5, label %if.end10, label %if.then7

if.then7:                                         ; preds = %invoke.cont2
  %call9 = invoke noundef nonnull align 8 dereferenceable(745) ptr @_ZN6icu_7522RuleBasedBreakIteratoraSERKS0_(ptr noundef nonnull align 8 dereferenceable(745) %this, ptr noundef nonnull align 8 dereferenceable(745) %call3)
          to label %delete.notnull unwind label %lpad

delete.notnull:                                   ; preds = %if.then7
  %vtable = load ptr, ptr %call3, align 8
  %vfn = getelementptr inbounds i8, ptr %vtable, i64 8
  %3 = load ptr, ptr %vfn, align 8
  tail call void %3(ptr noundef nonnull align 8 dereferenceable(745) %call3) #15
  br label %if.end10

if.end10:                                         ; preds = %delete.notnull, %entry, %invoke.cont2
  ret void
}